; Function Attrs: mustprogress uwtable
define hidden void @_ZN9CsvReaderC2ERKNSt7__cxx1112basic_stringIcSt11char_traitsIcESaIcEEEc(ptr noundef nonnull align 8 dereferenceable(521) %0, ptr noundef nonnull align 8 dereferenceable(32) %1, i8 noundef signext %2) unnamed_addr #3 align 2 personality ptr @__gxx_personality_v0 {
  tail call void @_ZNSt14basic_ifstreamIcSt11char_traitsIcEEC1Ev(ptr noundef nonnull align 8 dereferenceable(256) %0)
  %4 = tail call noundef ptr @_ZNKSt7__cxx1112basic_stringIcSt11char_traitsIcESaIcEE5c_strEv(ptr noundef nonnull align 8 dereferenceable(32) %1) #13
  invoke void @_ZNSt14basic_ifstreamIcSt11char_traitsIcEE4openEPKcSt13_Ios_Openmode(ptr noundef nonnull align 8 dereferenceable(256) %0, ptr noundef %4, i32 noundef 8)
          to label %5 unwind label %7

5:                                                ; preds = %3
  %6 = getelementptr inbounds i8, ptr %0, i64 520
  store i8 %2, ptr %6, align 8
  ret void

7:                                                ; preds = %3
  %8 = landingpad { ptr, i32 }
          cleanup
  tail call void @_ZNSt14basic_ifstreamIcSt11char_traitsIcEED1Ev(ptr noundef nonnull align 8 dereferenceable(256) %0) #13
  resume { ptr, i32 } %8
}